; Function Attrs: mustprogress uwtable
define hidden void @_ZN4cvc58internal6theory24SimpleTheoryInternalFact11processFactERSt6vectorINS0_12NodeTemplateILb1EEESaIS5_EERPNS0_14ProofGeneratorE(ptr noalias nocapture writeonly sret(%"class.cvc5::internal::NodeTemplate") align 8 %agg.result, ptr noundef nonnull align 8 dereferenceable(40) %this, ptr noundef nonnull align 8 dereferenceable(24) %exp, ptr nocapture noundef nonnull writeonly align 8 dereferenceable(8) %pg) unnamed_addr #3 align 2 {
entry:
  %d_exp = getelementptr inbounds i8, ptr %this, i64 24
  %_M_finish.i = getelementptr inbounds i8, ptr %exp, i64 8
  %0 = load ptr, ptr %_M_finish.i, align 8
  %_M_end_of_storage.i = getelementptr inbounds i8, ptr %exp, i64 16
  %1 = load ptr, ptr %_M_end_of_storage.i, align 8
  %cmp.not.i = icmp eq ptr %0, %1
  br i1 %cmp.not.i, label %if.else.i, label %if.then.i

if.then.i:                                        ; preds = %entry
  %2 = load ptr, ptr %d_exp, align 8
  store ptr %2, ptr %0, align 8
  %bf.load.i.i.i.i.i = load i64, ptr %2, align 8
  %bf.lshr.i.i.i.i.i = lshr i64 %bf.load.i.i.i.i.i, 40
  %3 = trunc i64 %bf.lshr.i.i.i.i.i to i32
  %bf.cast.i.i.i.i.i = and i32 %3, 1048575
  %cmp.i.i.i.i.i = icmp ult i32 %bf.cast.i.i.i.i.i, 1048574
  br i1 %cmp.i.i.i.i.i, label %if.then.i.i.i.i.i, label %if.else.i.i.i.i.i

if.then.i.i.i.i.i:                                ; preds = %if.then.i
  %bf.value.i.i.i.i.i = add i64 %bf.load.i.i.i.i.i, 1099511627776
  %bf.shl.i.i.i.i.i = and i64 %bf.value.i.i.i.i.i, 1152920405095219200
  %bf.clear7.i.i.i.i.i = and i64 %bf.load.i.i.i.i.i, -1152920405095219201
  %bf.set.i.i.i.i.i = or disjoint i64 %bf.shl.i.i.i.i.i, %bf.clear7.i.i.i.i.i
  store i64 %bf.set.i.i.i.i.i, ptr %2, align 8
  br label %_ZNSt16allocator_traitsISaIN4cvc58internal12NodeTemplateILb1EEEEE9constructIS3_JRKS3_EEEvRS4_PT_DpOT0_.exit.i

if.else.i.i.i.i.i:                                ; preds = %if.then.i
  %cmp12.i.i.i.i.i = icmp eq i32 %bf.cast.i.i.i.i.i, 1048574
  br i1 %cmp12.i.i.i.i.i, label %if.then13.i.i.i.i.i, label %_ZNSt16allocator_traitsISaIN4cvc58internal12NodeTemplateILb1EEEEE9constructIS3_JRKS3_EEEvRS4_PT_DpOT0_.exit.i

if.then13.i.i.i.i.i:                              ; preds = %if.else.i.i.i.i.i
  %bf.set23.i.i.i.i.i = or i64 %bf.load.i.i.i.i.i, 1152920405095219200
  store i64 %bf.set23.i.i.i.i.i, ptr %2, align 8
  tail call void @_ZN4cvc58internal4expr9NodeValue20markRefCountMaxedOutEv(ptr noundef nonnull align 8 dereferenceable(16) %2)
  br label %_ZNSt16allocator_traitsISaIN4cvc58internal12NodeTemplateILb1EEEEE9constructIS3_JRKS3_EEEvRS4_PT_DpOT0_.exit.i

_ZNSt16allocator_traitsISaIN4cvc58internal12NodeTemplateILb1EEEEE9constructIS3_JRKS3_EEEvRS4_PT_DpOT0_.exit.i: ; preds = %if.then13.i.i.i.i.i, %if.else.i.i.i.i.i, %if.then.i.i.i.i.i
  %4 = load ptr, ptr %_M_finish.i, align 8
  %incdec.ptr.i = getelementptr inbounds i8, ptr %4, i64 8
  store ptr %incdec.ptr.i, ptr %_M_finish.i, align 8
  br label %_ZNSt6vectorIN4cvc58internal12NodeTemplateILb1EEESaIS3_EE9push_backERKS3_.exit

if.else.i:                                        ; preds = %entry
  tail call void @_ZNSt6vectorIN4cvc58internal12NodeTemplateILb1EEESaIS3_EE17_M_realloc_insertIJRKS3_EEEvN9__gnu_cxx17__normal_iteratorIPS3_S5_EEDpOT_(ptr noundef nonnull align 8 dereferenceable(24) %exp, ptr %0, ptr noundef nonnull align 8 dereferenceable(8) %d_exp)
  br label %_ZNSt6vectorIN4cvc58internal12NodeTemplateILb1EEESaIS3_EE9push_backERKS3_.exit

_ZNSt6vectorIN4cvc58internal12NodeTemplateILb1EEESaIS3_EE9push_backERKS3_.exit: ; preds = %_ZNSt16allocator_traitsISaIN4cvc58internal12NodeTemplateILb1EEEEE9constructIS3_JRKS3_EEEvRS4_PT_DpOT0_.exit.i, %if.else.i
  %d_pg = getelementptr inbounds i8, ptr %this, i64 32
  %5 = load ptr, ptr %d_pg, align 8
  store ptr %5, ptr %pg, align 8
  %d_conc = getelementptr inbounds i8, ptr %this, i64 16
  %6 = load ptr, ptr %d_conc, align 8
  store ptr %6, ptr %agg.result, align 8
  %bf.load.i.i = load i64, ptr %6, align 8
  %bf.lshr.i.i = lshr i64 %bf.load.i.i, 40
  %7 = trunc i64 %bf.lshr.i.i to i32
  %bf.cast.i.i = and i32 %7, 1048575
  %cmp.i.i = icmp ult i32 %bf.cast.i.i, 1048574
  br i1 %cmp.i.i, label %if.then.i.i, label %if.else.i.i

if.then.i.i:                                      ; preds = %_ZNSt6vectorIN4cvc58internal12NodeTemplateILb1EEESaIS3_EE9push_backERKS3_.exit
  %bf.value.i.i = add i64 %bf.load.i.i, 1099511627776
  %bf.shl.i.i = and i64 %bf.value.i.i, 1152920405095219200
  %bf.clear7.i.i = and i64 %bf.load.i.i, -1152920405095219201
  %bf.set.i.i = or disjoint i64 %bf.shl.i.i, %bf.clear7.i.i
  store i64 %bf.set.i.i, ptr %6, align 8
  br label %_ZN4cvc58internal12NodeTemplateILb1EEC2ERKS2_.exit

if.else.i.i:                                      ; preds = %_ZNSt6vectorIN4cvc58internal12NodeTemplateILb1EEESaIS3_EE9push_backERKS3_.exit
  %cmp12.i.i = icmp eq i32 %bf.cast.i.i, 1048574
  br i1 %cmp12.i.i, label %if.then13.i.i, label %_ZN4cvc58internal12NodeTemplateILb1EEC2ERKS2_.exit

if.then13.i.i:                                    ; preds = %if.else.i.i
  %bf.set23.i.i = or i64 %bf.load.i.i, 1152920405095219200
  store i64 %bf.set23.i.i, ptr %6, align 8
  tail call void @_ZN4cvc58internal4expr9NodeValue20markRefCountMaxedOutEv(ptr noundef nonnull align 8 dereferenceable(16) %6)
  br label %_ZN4cvc58internal12NodeTemplateILb1EEC2ERKS2_.exit

_ZN4cvc58internal12NodeTemplateILb1EEC2ERKS2_.exit: ; preds = %if.then.i.i, %if.else.i.i, %if.then13.i.i
  ret void
}